#include <math.h>
#include <stdio.h>
#include <stdlib.h>
#include <string.h>


int main()
{
    
    int n;
    int i,j,l;
    char a[100];
    scanf("%d",&n);
    getchar();
    
    for(i=0;i<n;i++)
    {
       gets(a);
       l=strlen(a);
       if(!((a[0]>='A'&&a[0]<='Z')||(a[0]>='a'&&a[0]<='z')||a[0]=='_'))
         {
         printf("0\n");
         }
       else
       {
           for(j=1;j<l;j++)
           {
           if(!((a[j]>='0'&&a[j]<='9')||(a[j]>='A'&&a[j]<='Z')||(a[j]>='a'&&a[j]<='z')||a[j]=='_'))
             {
             printf("0\n");
             j=l+1;
             }
           }
           if(j==l)
            printf("1\n");
       }
    }
    
    getchar();
    getchar();
    getchar();
    
}
